; Function Attrs: nounwind uwtable
define dso_local noundef zeroext i1 @SnapBuildProcessChange(ptr noundef captures(none) %0, i32 noundef %1, i64 noundef %2) local_unnamed_addr #0 {
  %4 = load i32, ptr %0, align 8
  %5 = icmp slt i32 %4, 1
  br i1 %5, label %58, label %6

6:                                                ; preds = %3
  %7 = icmp eq i32 %4, 1
  br i1 %7, label %8, label %12

8:                                                ; preds = %6
  %9 = getelementptr inbounds nuw i8, ptr %0, i64 72
  %10 = load i32, ptr %9, align 8
  %11 = tail call zeroext i1 @TransactionIdPrecedes(i32 noundef %1, i32 noundef %10) #14
  br i1 %11, label %58, label %12

12:                                               ; preds = %8, %6
  %13 = getelementptr inbounds nuw i8, ptr %0, i64 64
  %14 = load ptr, ptr %13, align 8
  %15 = tail call zeroext i1 @ReorderBufferXidHasBaseSnapshot(ptr noundef %14, i32 noundef %1) #14
  br i1 %15, label %58, label %16

16:                                               ; preds = %12
  %17 = getelementptr inbounds nuw i8, ptr %0, i64 48
  %18 = load ptr, ptr %17, align 8
  %19 = icmp eq ptr %18, null
  br i1 %19, label %20, label %51

20:                                               ; preds = %16
  %21 = getelementptr inbounds nuw i8, ptr %0, i64 80
  %22 = load i64, ptr %21, align 8
  %23 = shl i64 %22, 2
  %24 = add i64 %23, 108
  %25 = getelementptr inbounds nuw i8, ptr %0, i64 8
  %26 = load ptr, ptr %25, align 8
  %27 = tail call ptr @MemoryContextAllocZero(ptr noundef %26, i64 noundef %24) #14
  store i32 5, ptr %27, align 8
  %28 = getelementptr inbounds nuw i8, ptr %0, i64 16
  %29 = load i32, ptr %28, align 8
  %30 = getelementptr inbounds nuw i8, ptr %27, i64 4
  store i32 %29, ptr %30, align 4
  %31 = getelementptr inbounds nuw i8, ptr %0, i64 20
  %32 = load i32, ptr %31, align 4
  %33 = getelementptr inbounds nuw i8, ptr %27, i64 8
  store i32 %32, ptr %33, align 8
  %34 = getelementptr inbounds nuw i8, ptr %27, i64 104
  %35 = getelementptr inbounds nuw i8, ptr %27, i64 16
  store ptr %34, ptr %35, align 8
  %36 = load i64, ptr %21, align 8
  %37 = trunc i64 %36 to i32
  %38 = getelementptr inbounds nuw i8, ptr %27, i64 24
  store i32 %37, ptr %38, align 8
  %39 = getelementptr inbounds nuw i8, ptr %0, i64 104
  %40 = load ptr, ptr %39, align 8
  %41 = load i64, ptr %21, align 8
  %42 = shl i64 %41, 2
  tail call void @llvm.memcpy.p0.p0.i64(ptr nonnull align 4 %34, ptr align 4 %40, i64 %42, i1 false)
  %43 = and i64 %36, 4294967295
  tail call void @pg_qsort(ptr noundef nonnull %34, i64 noundef %43, i64 noundef 4, ptr noundef nonnull @xidComparator) #14
  %44 = getelementptr inbounds nuw i8, ptr %27, i64 32
  %45 = getelementptr inbounds nuw i8, ptr %27, i64 48
  store i32 0, ptr %45, align 8
  %46 = getelementptr inbounds nuw i8, ptr %27, i64 64
  store i32 0, ptr %46, align 8
  %47 = getelementptr inbounds nuw i8, ptr %27, i64 68
  store i32 0, ptr %47, align 4
  %48 = getelementptr inbounds nuw i8, ptr %27, i64 96
  store i64 0, ptr %48, align 8
  tail call void @llvm.memset.p0.i64(ptr noundef nonnull align 8 dereferenceable(15) %44, i8 0, i64 15, i1 false)
  store ptr %27, ptr %17, align 8
  %49 = load i32, ptr %46, align 8
  %50 = add i32 %49, 1
  store i32 %50, ptr %46, align 8
  %.pre = load ptr, ptr %17, align 8
  br label %51

51:                                               ; preds = %20, %16
  %52 = phi ptr [ %.pre, %20 ], [ %18, %16 ]
  %53 = getelementptr inbounds nuw i8, ptr %52, i64 64
  %54 = load i32, ptr %53, align 8
  %55 = add i32 %54, 1
  store i32 %55, ptr %53, align 8
  %56 = load ptr, ptr %13, align 8
  %57 = load ptr, ptr %17, align 8
  tail call void @ReorderBufferSetBaseSnapshot(ptr noundef %56, i32 noundef %1, i64 noundef %2, ptr noundef %57) #14
  br label %58

58:                                               ; preds = %12, %51, %8, %3
  %.0 = phi i1 [ false, %3 ], [ false, %8 ], [ true, %51 ], [ true, %12 ]
  ret i1 %.0
}